; Function Attrs: nounwind uwtable
define internal void @lmcon(ptr noundef initializes((144, 404), (448, 460), (464, 528)) %0) #0 {
  %2 = getelementptr inbounds nuw i8, ptr %0, i64 144
  tail call void @llvm.memset.p0.i64(ptr noundef nonnull align 8 dereferenceable(260) %2, i8 0, i64 260, i1 false)
  %3 = load i32, ptr @pmix_class_init_epoch, align 4, !tbaa !23
  %4 = load i32, ptr getelementptr inbounds nuw (i8, ptr @pmix_list_t_class, i64 32), align 8, !tbaa !75
  %.not = icmp eq i32 %3, %4
  br i1 %.not, label %6, label %5

5:                                                ; preds = %1
  tail call void @pmix_class_initialize(ptr noundef nonnull @pmix_list_t_class) #19
  br label %6

6:                                                ; preds = %5, %1
  %7 = getelementptr inbounds nuw i8, ptr %0, i64 408
  %8 = getelementptr inbounds nuw i8, ptr %0, i64 448
  store ptr @pmix_list_t_class, ptr %8, align 8, !tbaa !77
  %9 = getelementptr inbounds nuw i8, ptr %0, i64 456
  store i32 1, ptr %9, align 8, !tbaa !78
  %10 = getelementptr inbounds nuw i8, ptr %0, i64 464
  tail call void @llvm.memset.p0.i64(ptr noundef nonnull align 8 dereferenceable(64) %10, i8 0, i64 64, i1 false)
  %11 = load ptr, ptr getelementptr inbounds nuw (i8, ptr @pmix_list_t_class, i64 40), align 8, !tbaa !79
  %12 = load ptr, ptr %11, align 8, !tbaa !80
  %.not6.i = icmp eq ptr %12, null
  br i1 %.not6.i, label %pmix_obj_run_constructors.exit, label %.lr.ph.i

.lr.ph.i:                                         ; preds = %6, %.lr.ph.i
  %13 = phi ptr [ %15, %.lr.ph.i ], [ %12, %6 ]
  %.07.i = phi ptr [ %14, %.lr.ph.i ], [ %11, %6 ]
  tail call void %13(ptr noundef nonnull %7) #19
  %14 = getelementptr inbounds nuw i8, ptr %.07.i, i64 8
  %15 = load ptr, ptr %14, align 8, !tbaa !80
  %.not.i = icmp eq ptr %15, null
  br i1 %.not.i, label %pmix_obj_run_constructors.exit, label %.lr.ph.i, !llvm.loop !81

pmix_obj_run_constructors.exit:                   ; preds = %.lr.ph.i, %6
  %16 = getelementptr inbounds nuw i8, ptr %0, i64 680
  tail call void @llvm.memset.p0.i64(ptr noundef nonnull align 8 dereferenceable(16) %16, i8 0, i64 16, i1 false)
  ret void
}